ccopy_reg
_reconstructor
p0
(csklearn.preprocessing.label
LabelEncoder
p1
c__builtin__
object
p2
Ntp3
Rp4
(dp5
S'classes_'
p6
cnumpy.core.multiarray
_reconstruct
p7
(cnumpy
ndarray
p8
(I0
tp9
S'b'
p10
tp11
Rp12
(I1
(I7
tp13
cnumpy
dtype
p14
(S'O8'
p15
I0
I1
tp16
Rp17
(I3
S'|'
p18
NNNI-1
I-1
I63
tp19
bI00
(lp20
S'0'
p21
aS'DIVORCED'
p22
aS'MARRIED'
p23
aS'SEPARATED'
p24
aS'SINGLE'
p25
aS'UNKNOWN (DEFAULT)'
p26
aS'WIDOWED'
p27
atp28
bsS'_sklearn_version'
p29
S'0.19.1'
p30
sb.